target datalayout = "e-m:e-p270:32:32-p271:32:32-p272:64:64-i64:64-i128:128-f80:128-n8:16:32:64-S128"
target triple = "x86_64-pc-linux-gnu"

%class.btConvexInternalShape = type { %class.btConvexShape, %class.btVector3, %class.btVector3, float, float }
%class.btConvexShape = type { %class.btCollisionShape }
%class.btCollisionShape = type { ptr, i32, ptr, i32, i32 }
%class.btVector3 = type { [4 x float] }
%class.btCapsuleShape = type <{ %class.btConvexInternalShape, i32, [4 x i8] }>

; Function Attrs: inlinehint mustprogress nounwind uwtable
define linkonce_odr dso_local void @_ZN9btVector38setValueERKfS1_S1_(ptr noundef nonnull align 4 dereferenceable(16) %0, ptr noundef nonnull align 4 dereferenceable(4) %1, ptr noundef nonnull align 4 dereferenceable(4) %2, ptr noundef nonnull align 4 dereferenceable(4) %3) #4 comdat align 2 {
  %5 = alloca ptr, align 8
  %6 = alloca ptr, align 8
  %7 = alloca ptr, align 8
  %8 = alloca ptr, align 8
  store ptr %0, ptr %5, align 8, !tbaa !26
  store ptr %1, ptr %6, align 8, !tbaa !28
  store ptr %2, ptr %7, align 8, !tbaa !28
  store ptr %3, ptr %8, align 8, !tbaa !28
  %9 = load ptr, ptr %5, align 8
  %10 = load ptr, ptr %6, align 8, !tbaa !28
  %11 = load float, ptr %10, align 4, !tbaa !14
  %12 = getelementptr inbounds nuw %class.btVector3, ptr %9, i32 0, i32 0
  %13 = getelementptr inbounds [4 x float], ptr %12, i64 0, i64 0
  store float %11, ptr %13, align 4, !tbaa !14
  %14 = load ptr, ptr %7, align 8, !tbaa !28
  %15 = load float, ptr %14, align 4, !tbaa !14
  %16 = getelementptr inbounds nuw %class.btVector3, ptr %9, i32 0, i32 0
  %17 = getelementptr inbounds [4 x float], ptr %16, i64 0, i64 1
  store float %15, ptr %17, align 4, !tbaa !14
  %18 = load ptr, ptr %8, align 8, !tbaa !28
  %19 = load float, ptr %18, align 4, !tbaa !14
  %20 = getelementptr inbounds nuw %class.btVector3, ptr %9, i32 0, i32 0
  %21 = getelementptr inbounds [4 x float], ptr %20, i64 0, i64 2
  store float %19, ptr %21, align 4, !tbaa !14
  %22 = getelementptr inbounds nuw %class.btVector3, ptr %9, i32 0, i32 0
  %23 = getelementptr inbounds [4 x float], ptr %22, i64 0, i64 3
  store float 0.000000e+00, ptr %23, align 4, !tbaa !14
  ret void
}

; Function Attrs: mustprogress uwtable
define linkonce_odr dso_local void @_ZN14btCapsuleShapeC2Ev(ptr noundef nonnull align 8 dereferenceable(76) %0) unnamed_addr #2 comdat align 2 {
  %2 = alloca ptr, align 8
  store ptr %0, ptr %2, align 8, !tbaa !12
  %3 = load ptr, ptr %2, align 8
  call void @_ZN21btConvexInternalShapeC2Ev(ptr noundef nonnull align 8 dereferenceable(72) %3)
  store ptr getelementptr inbounds inrange(-16, 184) ({ [25 x ptr] }, ptr @_ZTV14btCapsuleShape, i32 0, i32 0, i32 2), ptr %3, align 8, !tbaa !16
  %4 = getelementptr inbounds nuw %class.btCollisionShape, ptr %3, i32 0, i32 1
  store i32 10, ptr %4, align 8, !tbaa !23
  ret void
}

; Function Attrs: mustprogress uwtable
define dso_local void @_ZN15btCapsuleShapeXC2Eff(ptr noundef nonnull align 8 dereferenceable(76) %0, float noundef %1, float noundef %2) unnamed_addr #2 align 2 personality ptr @__gxx_personality_v0 {
  %4 = alloca ptr, align 8
  %5 = alloca float, align 4
  %6 = alloca float, align 4
  %7 = alloca float, align 4
  %8 = alloca ptr, align 8
  %9 = alloca i32, align 4
  store ptr %0, ptr %4, align 8, !tbaa !35
  store float %1, ptr %5, align 4, !tbaa !14
  store float %2, ptr %6, align 4, !tbaa !14
  %10 = load ptr, ptr %4, align 8
  call void @_ZN14btCapsuleShapeC2Ev(ptr noundef nonnull align 8 dereferenceable(76) %10)
  store ptr getelementptr inbounds inrange(-16, 184) ({ [25 x ptr] }, ptr @_ZTV15btCapsuleShapeX, i32 0, i32 0, i32 2), ptr %10, align 8, !tbaa !16
  %11 = load float, ptr %5, align 4, !tbaa !14
  %12 = getelementptr inbounds nuw %class.btConvexInternalShape, ptr %10, i32 0, i32 3
  store float %11, ptr %12, align 8, !tbaa !18
  %13 = getelementptr inbounds nuw %class.btCapsuleShape, ptr %10, i32 0, i32 1
  store i32 0, ptr %13, align 8, !tbaa !24
  %14 = getelementptr inbounds nuw %class.btConvexInternalShape, ptr %10, i32 0, i32 2
  call void @llvm.lifetime.start.p0(i64 4, ptr %7) #12
  %15 = load float, ptr %6, align 4, !tbaa !14
  %16 = fmul float 5.000000e-01, %15
  store float %16, ptr %7, align 4, !tbaa !14
  invoke void @_ZN9btVector38setValueERKfS1_S1_(ptr noundef nonnull align 4 dereferenceable(16) %14, ptr noundef nonnull align 4 dereferenceable(4) %7, ptr noundef nonnull align 4 dereferenceable(4) %5, ptr noundef nonnull align 4 dereferenceable(4) %5)
          to label %17 unwind label %18

17:                                               ; preds = %3
  call void @llvm.lifetime.end.p0(i64 4, ptr %7) #12
  ret void

18:                                               ; preds = %3
  %19 = landingpad { ptr, i32 }
          cleanup
  %20 = extractvalue { ptr, i32 } %19, 0
  store ptr %20, ptr %8, align 8
  %21 = extractvalue { ptr, i32 } %19, 1
  store i32 %21, ptr %9, align 4
  call void @llvm.lifetime.end.p0(i64 4, ptr %7) #12
  call void @_ZN13btConvexShapeD2Ev(ptr noundef nonnull align 8 dereferenceable(76) %10) #12
  br label %22

22:                                               ; preds = %18
  %23 = load ptr, ptr %8, align 8
  %24 = load i32, ptr %9, align 4
  %25 = insertvalue { ptr, i32 } poison, ptr %23, 0
  %26 = insertvalue { ptr, i32 } %25, i32 %24, 1
  resume { ptr, i32 } %26
}